-----BEGIN PRIVATE KEY-----
MIIEvwIBADANBgkqhkiG9w0BAQEFAASCBKkwggSlAgEAAoIBAQCbE8ILYEITh9up
ken6c61zNAibRnq70g7glLy6fHqQJsrIVzmj6b+4dHLYUA3mu13pqZyoK6YP1MPd
afdh23IrW4vo6xtxCpqQk0rAEa+0cji7E+01JHEvO4Y1Q4NScGj628HDe+dJqiQD
AZWRDgIodlKrRjD1XZT91U0UsuytDvYQVbEIosgMdEevW8FvqWAhDH6fkb4Q5OdW
wUxGnX0+cHLINVMJvCoPq+fDQWy4A/2uRiFn/x9NBZEz2AwNta+y6e3pn8gZE9vh
Feqe3Jv9toIZzsqQZ/fCWK6FKzfkxQNYc5vcSqHx96VuDhqrbnPFdpcQfRB08Yg4
3TSioKY7AgMBAAECggEAOqImzPxRH2dPs3Z6+/n+y78RvfvQ7fDHNTyneu8TvCse
os7v+TypA4nr3kOubd3L7Uv28lLGj9fHUpD9Ot+o9CHB7YfvMTdsJ1u5eJN3VoeV
UY6AMoab0Nr1rG/hWCsuViL+yPWxBlYxFX3k2hps0HWkXiPE4RDIA41BfqEEAY4+
6V0lvoBZAJbYncGg1BEDxH+erXIFmAu3PeCYEpb2VP7hQH8JITEWco+DmK5impoB
e+BaEVLqFKUjU+EdvpE4WKB24K9lw35bfGhWd/cQwSaLIPezG1OK9M0JbpPoj5gg
KBdwrS7EdOur64Ue774KPAFRYU8mEpnnQMKOnNUuSQKBgQDHfriFwjViBdRJGTZ1
Wa/AgJ7rVU9yMhaUSifYbLQDrYRwagYNtA/NqTgRYl7BbHZpsYmglQoCAWJa+KK2
xwJ/1uLsNG+I04lSQCsRr4/z23O6Vc2VzmMpru6Upa9mL8aNiUm2+7VJje/NnUW5
OXiSxbYGchYbO7+sIo8UmSpm7wKBgQDHAFLoBZOeh1BGnD0YNH7WYJ4kH9IriFcB
QqJL8yFjikbUU976yAyXNbMIVBMkCZoT/l7RvgwLufarKTzRHv88nCPwg8/sbQQT
WP4TRcxS6zZj4y0VHN2i0KSldAYk1ohgLFXzAQzXVcMBzNNOdSSLtqRbPZo9Gd7U
DYaHxRIVdQKBgQCFykaV7hk/FAm6vF35dZyYzanGyf/t5gmeid0PGFfh34zilzhY
GFpA4yvm/MHvln4ThC14tHtxvNvphrYZPn4+ni6xmrjyWmvN7Zr00XkJYjPK06B8
x11Zpyf6KOPo9EGEyn3Vahm6qqYYj1EjV5e1V0MsL3cD7J4vIz4x4ka9oQKBgQCN
9tQuQ7Qw1rVU+ia3etO1Wc3XVYAYoDX5ZzDi37rFCSNIW+DppQceZCepXFkfT15E
vyWjmWF8iBjJuCxzvxo0ges9rLsLHiZXKxhuZU/DI5t0nN9PfX07pn6ereuoIge+
HELgjbI8eCkawqVIBleg+BW+JW9AAZGuU0vS1ar19QKBgQC3J57JCl6ZZzGKpFpU
/9qYA0qFFRBIRddHlfelk7EBqg/6C6yEXAqNO+DcurdU6li+lEOKNSPAqii2MC+H
XqCIdtbZcOX7pUSg5E8N883ruMjsaePTsvA5iEY5QvA8Mn47wpPikYEXQgFWoP+W
UFlVhwe/E/ebjJZqyTiQaQcMPQ==
-----END PRIVATE KEY-----
Certificate:
    Data:
        Version: 3 (0x2)
        Serial Number: 237 (0xed)
    Signature Algorithm: sha1WithRSAEncryption
        Issuer: CN=Test Root CA
        Validity
            Not Before: Jun 18 19:52:02 2013 GMT
            Not After : Jun 16 19:52:02 2023 GMT
        Subject: C=US, ST=California, L=Mountain View, O=Test CA, CN=127.0.0.1
        Subject Public Key Info:
            Public Key Algorithm: rsaEncryption
                Public-Key: (2048 bit)
                Modulus:
                    00:9b:13:c2:0b:60:42:13:87:db:a9:91:e9:fa:73:
                    ad:73:34:08:9b:46:7a:bb:d2:0e:e0:94:bc:ba:7c:
                    7a:90:26:ca:c8:57:39:a3:e9:bf:b8:74:72:d8:50:
                    0d:e6:bb:5d:e9:a9:9c:a8:2b:a6:0f:d4:c3:dd:69:
                    f7:61:db:72:2b:5b:8b:e8:eb:1b:71:0a:9a:90:93:
                    4a:c0:11:af:b4:72:38:bb:13:ed:35:24:71:2f:3b:
                    86:35:43:83:52:70:68:fa:db:c1:c3:7b:e7:49:aa:
                    24:03:01:95:91:0e:02:28:76:52:ab:46:30:f5:5d:
                    94:fd:d5:4d:14:b2:ec:ad:0e:f6:10:55:b1:08:a2:
                    c8:0c:74:47:af:5b:c1:6f:a9:60:21:0c:7e:9f:91:
                    be:10:e4:e7:56:c1:4c:46:9d:7d:3e:70:72:c8:35:
                    53:09:bc:2a:0f:ab:e7:c3:41:6c:b8:03:fd:ae:46:
                    21:67:ff:1f:4d:05:91:33:d8:0c:0d:b5:af:b2:e9:
                    ed:e9:9f:c8:19:13:db:e1:15:ea:9e:dc:9b:fd:b6:
                    82:19:ce:ca:90:67:f7:c2:58:ae:85:2b:37:e4:c5:
                    03:58:73:9b:dc:4a:a1:f1:f7:a5:6e:0e:1a:ab:6e:
                    73:c5:76:97:10:7d:10:74:f1:88:38:dd:34:a2:a0:
                    a6:3b
                Exponent: 65537 (0x10001)
        X509v3 extensions:
            X509v3 Basic Constraints: critical
                CA:FALSE
            X509v3 Subject Key Identifier: 
                34:FF:09:84:DB:23:D0:1F:45:72:50:CE:79:28:D3:EF:FB:B1:46:07
            X509v3 Authority Key Identifier: 
                keyid:2B:88:93:E1:D2:54:50:F4:B8:A4:20:BD:B1:79:E6:0B:AA:EB:EC:1A

            X509v3 Extended Key Usage: 
                TLS Web Server Authentication, TLS Web Client Authentication
            X509v3 Subject Alternative Name: 
                IP Address:127.0.0.1
    Signature Algorithm: sha1WithRSAEncryption
         a6:21:b1:53:7f:ec:a8:23:6f:76:d4:bd:0a:6a:67:a7:a8:9e:
         7d:08:38:62:cd:f4:34:d9:41:3a:02:a7:6d:31:7d:33:02:27:
         ab:06:e6:01:c8:65:32:b5:f3:96:27:4c:5a:82:a5:84:a7:99:
         29:4a:b6:b9:57:41:75:a9:e2:a6:87:00:25:ff:5a:85:f6:68:
         da:e1:5a:19:fb:91:5e:70:27:31:dd:9a:ac:20:9a:d6:27:1c:
         55:34:8c:f9:a4:97:ff:81:63:fb:b8:7d:71:d4:42:88:3c:10:
         db:78:54:e3:42:b1:a4:83:81:b9:92:7a:f6:b2:f2:19:1c:b6:
         68:80:2b:14:5a:36:84:e0:67:ad:f9:e4:bc:a1:63:af:a1:13:
         13:95:3f:76:5e:2c:81:ed:7c:4a:38:04:bf:dc:03:b0:ca:8b:
         d3:17:d8:fc:60:d9:83:31:9f:ef:be:a7:e3:05:4f:b4:3e:97:
         8a:6d:86:c5:69:ef:93:8c:1b:9e:6e:95:f7:1a:66:f7:1f:bf:
         5e:92:c4:ed:15:e1:2e:56:56:11:80:be:02:1d:96:fa:39:6a:
         e0:dd:04:d7:98:e9:29:72:a5:60:f1:0e:14:5d:08:db:26:18:
         42:5b:f3:82:fb:79:83:48:1b:86:8d:9d:8b:5c:87:1a:23:ae:
         bc:4c:13:46
-----BEGIN CERTIFICATE-----
MIIDdDCCAlygAwIBAgICAO0wDQYJKoZIhvcNAQEFBQAwFzEVMBMGA1UEAwwMVGVz
dCBSb290IENBMB4XDTEzMDYxODE5NTIwMloXDTIzMDYxNjE5NTIwMlowYDELMAkG
A1UEBhMCVVMxEzARBgNVBAgMCkNhbGlmb3JuaWExFjAUBgNVBAcMDU1vdW50YWlu
IFZpZXcxEDAOBgNVBAoMB1Rlc3QgQ0ExEjAQBgNVBAMMCTEyNy4wLjAuMTCCASIw
DQYJKoZIhvcNAQEBBQADggEPADCCAQoCggEBAJsTwgtgQhOH26mR6fpzrXM0CJtG
ervSDuCUvLp8epAmyshXOaPpv7h0cthQDea7XempnKgrpg/Uw91p92Hbcitbi+jr
G3EKmpCTSsARr7RyOLsT7TUkcS87hjVDg1JwaPrbwcN750mqJAMBlZEOAih2UqtG
MPVdlP3VTRSy7K0O9hBVsQiiyAx0R69bwW+pYCEMfp+RvhDk51bBTEadfT5wcsg1
Uwm8Kg+r58NBbLgD/a5GIWf/H00FkTPYDA21r7Lp7emfyBkT2+EV6p7cm/22ghnO
ypBn98JYroUrN+TFA1hzm9xKofH3pW4OGqtuc8V2lxB9EHTxiDjdNKKgpjsCAwEA
AaOBgDB+MAwGA1UdEwEB/wQCMAAwHQYDVR0OBBYEFDT/CYTbI9AfRXJQznko0+/7
sUYHMB8GA1UdIwQYMBaAFCuIk+HSVFD0uKQgvbF55guq6+waMB0GA1UdJQQWMBQG
CCsGAQUFBwMBBggrBgEFBQcDAjAPBgNVHREECDAGhwR/AAABMA0GCSqGSIb3DQEB
BQUAA4IBAQCmIbFTf+yoI2921L0KamenqJ59CDhizfQ02UE6AqdtMX0zAierBuYB
yGUytfOWJ0xagqWEp5kpSra5V0F1qeKmhwAl/1qF9mja4VoZ+5FecCcx3ZqsIJrW
JxxVNIz5pJf/gWP7uH1x1EKIPBDbeFTjQrGkg4G5knr2svIZHLZogCsUWjaE4Get
+eS8oWOvoRMTlT92XiyB7XxKOAS/3AOwyovTF9j8YNmDMZ/vvqfjBU+0PpeKbYbF
ae+TjBuebpX3Gmb3H79eksTtFeEuVlYRgL4CHZb6OWrg3QTXmOkpcqVg8Q4UXQjb
JhhCW/OC+3mDSBuGjZ2LXIcaI668TBNG
-----END CERTIFICATE-----
