Certificate:
    Data:
        Version: 3 (0x2)
        Serial Number:
            37:61:4c:77:87:45:bb:aa:4a:73:5f:a4:1b:09:cd:b3
        Signature Algorithm: sha1WithRSA
        Issuer: CN=Root Agency
        Validity
            Not Before: Dec  2 04:23:09 2011 GMT
            Not After : Dec 31 23:59:59 2039 GMT
        Subject: CN=issuer
        Subject Public Key Info:
            Public Key Algorithm: rsaEncryption
                Public-Key: (1024 bit)
                Modulus:
                    00:d6:6e:ed:69:7d:89:b1:cb:74:66:1a:66:69:77:
                    85:0e:f1:67:2e:4c:21:fa:40:57:44:24:c2:e2:25:
                    9f:3f:a8:26:73:54:8d:86:40:6e:f7:e1:04:7d:ff:
                    a3:fc:47:b0:23:03:98:7f:c2:b6:bc:43:ef:46:26:
                    bf:2b:e8:7c:e4:a0:de:34:68:da:fa:9f:cb:9e:92:
                    21:fb:a6:77:0e:b7:6f:15:9f:60:2d:0d:8c:a0:81:
                    88:42:eb:b1:36:92:59:af:dc:0a:f7:8d:8f:dc:55:
                    b5:90:d1:03:37:d2:1c:14:cc:5b:21:ac:0d:08:7d:
                    95:f3:1f:b2:d5:3d:9b:a7:2d
                Exponent: 65537 (0x10001)
        X509v3 extensions:
            2.5.29.1: 
                0>.....-...O..a!..dc..0.1.0...U....Root Agency...7l...d......\5.
    Signature Algorithm: sha1WithRSA
        7a:d4:36:5c:32:93:5a:aa:e9:ad:41:06:ff:55:ab:49:c4:5d:
        d1:3b:b1:b9:5d:78:ed:fc:85:9f:d8:3e:da:e1:9a:72:a2:ff:
        19:b7:b2:41:9f:08:aa:17:40:d5:a1:fc:64:f0:41:6c:8d:a9:
        98:7a:b0:70:1a:9b:12:c4:67:83
-----BEGIN CERTIFICATE-----
MIIBrjCCAVygAwIBAgIQN2FMd4dFu6pKc1+kGwnNszAJBgUrDgMCHQUAMBYxFDAS
BgNVBAMTC1Jvb3QgQWdlbmN5MB4XDTExMTIwMjA0MjMwOVoXDTM5MTIzMTIzNTk1
OVowETEPMA0GA1UEAxMGaXNzdWVyMIGfMA0GCSqGSIb3DQEBAQUAA4GNADCBiQKB
gQDWbu1pfYmxy3RmGmZpd4UO8WcuTCH6QFdEJMLiJZ8/qCZzVI2GQG734QR9/6P8
R7AjA5h/wra8Q+9GJr8r6HzkoN40aNr6n8uekiH7pncOt28Vn2AtDYyggYhC67E2
klmv3Ar3jY/cVbWQ0QM30hwUzFshrA0IfZXzH7LVPZunLQIDAQABo0swSTBHBgNV
HQEEQDA+gBAS5AktBh0dTwCNYSHcFmRjoRgwFjEUMBIGA1UEAxMLUm9vdCBBZ2Vu
Y3mCEAY3bACqAGSKEc+41KpcNfQwCQYFKw4DAh0FAANBAHrUNlwyk1qq6a1BBv9V
q0nEXdE7sbldeO38hZ/YPtrhmnKi/xm3skGfCKoXQNWh/GTwQWyNqZh6sHAamxLE
Z4M=
-----END CERTIFICATE-----
