Certificate:
    Data:
        Version: 3 (0x2)
        Serial Number:
             (Negative)63:42:94:68:c6:36:b0:45:bd:d1:84:ce:8b:2c:23:f6
        Signature Algorithm: sha1WithRSA
        Issuer: CN=Root Agency
        Validity
            Not Before: Dec  2 04:32:32 2011 GMT
            Not After : Dec 31 23:59:59 2039 GMT
        Subject: C=US
        Subject Public Key Info:
            Public Key Algorithm: rsaEncryption
                Public-Key: (1024 bit)
                Modulus:
                    00:d6:6e:ed:69:7d:89:b1:cb:74:66:1a:66:69:77:
                    85:0e:f1:67:2e:4c:21:fa:40:57:44:24:c2:e2:25:
                    9f:3f:a8:26:73:54:8d:86:40:6e:f7:e1:04:7d:ff:
                    a3:fc:47:b0:23:03:98:7f:c2:b6:bc:43:ef:46:26:
                    bf:2b:e8:7c:e4:a0:de:34:68:da:fa:9f:cb:9e:92:
                    21:fb:a6:77:0e:b7:6f:15:9f:60:2d:0d:8c:a0:81:
                    88:42:eb:b1:36:92:59:af:dc:0a:f7:8d:8f:dc:55:
                    b5:90:d1:03:37:d2:1c:14:cc:5b:21:ac:0d:08:7d:
                    95:f3:1f:b2:d5:3d:9b:a7:2d
                Exponent: 65537 (0x10001)
        X509v3 extensions:
            2.5.29.1: 
                0>.....-...O..a!..dc..0.1.0...U....Root Agency...7l...d......\5.
    Signature Algorithm: sha1WithRSA
        3e:89:9b:b4:d4:ea:1d:c2:89:de:fc:a6:70:58:ce:46:b5:f8:
        dc:b9:f6:c1:1f:88:91:28:59:ac:61:b2:66:1d:06:05:5d:82:
        cb:81:34:8b:6c:65:bf:48:dc:3f:a1:c3:0d:83:8a:a6:3a:b7:
        fa:1b:1b:f7:76:0d:da:9a:fe:10
-----BEGIN CERTIFICATE-----
MIIBqjCCAVigAwIBAgIQnL1rlznJT7pCLnsxdNPcCjAJBgUrDgMCHQUAMBYxFDAS
BgNVBAMTC1Jvb3QgQWdlbmN5MB4XDTExMTIwMjA0MzIzMloXDTM5MTIzMTIzNTk1
OVowDTELMAkGA1UEBhMCVVMwgZ8wDQYJKoZIhvcNAQEBBQADgY0AMIGJAoGBANZu
7Wl9ibHLdGYaZml3hQ7xZy5MIfpAV0QkwuIlnz+oJnNUjYZAbvfhBH3/o/xHsCMD
mH/CtrxD70YmvyvofOSg3jRo2vqfy56SIfumdw63bxWfYC0NjKCBiELrsTaSWa/c
CveNj9xVtZDRAzfSHBTMWyGsDQh9lfMfstU9m6ctAgMBAAGjSzBJMEcGA1UdAQRA
MD6AEBLkCS0GHR1PAI1hIdwWZGOhGDAWMRQwEgYDVQQDEwtSb290IEFnZW5jeYIQ
BjdsAKoAZIoRz7jUqlw19DAJBgUrDgMCHQUAA0EAPombtNTqHcKJ3vymcFjORrX4
3Ln2wR+IkShZrGGyZh0GBV2Cy4E0i2xlv0jcP6HDDYOKpjq3+hsb93YN2pr+EA==
-----END CERTIFICATE-----
