Certificate:
    Data:
        Version: 3 (0x2)
        Serial Number:
            04:45:22:ac:ff:83:1f:ac:44:b9:0e:a3:86:ff:62:fa
        Signature Algorithm: sha1WithRSA
        Issuer: CN=Root Agency
        Validity
            Not Before: Dec  2 04:30:49 2011 GMT
            Not After : Dec 31 23:59:59 2039 GMT
        Subject: O=org, CN=subject
        Subject Public Key Info:
            Public Key Algorithm: rsaEncryption
                Public-Key: (1024 bit)
                Modulus:
                    00:d6:6e:ed:69:7d:89:b1:cb:74:66:1a:66:69:77:
                    85:0e:f1:67:2e:4c:21:fa:40:57:44:24:c2:e2:25:
                    9f:3f:a8:26:73:54:8d:86:40:6e:f7:e1:04:7d:ff:
                    a3:fc:47:b0:23:03:98:7f:c2:b6:bc:43:ef:46:26:
                    bf:2b:e8:7c:e4:a0:de:34:68:da:fa:9f:cb:9e:92:
                    21:fb:a6:77:0e:b7:6f:15:9f:60:2d:0d:8c:a0:81:
                    88:42:eb:b1:36:92:59:af:dc:0a:f7:8d:8f:dc:55:
                    b5:90:d1:03:37:d2:1c:14:cc:5b:21:ac:0d:08:7d:
                    95:f3:1f:b2:d5:3d:9b:a7:2d
                Exponent: 65537 (0x10001)
        X509v3 extensions:
            2.5.29.1: 
                0>.....-...O..a!..dc..0.1.0...U....Root Agency...7l...d......\5.
    Signature Algorithm: sha1WithRSA
        22:0b:9f:93:d2:e1:57:ba:1a:d0:c5:16:1e:87:24:d8:0f:45:
        2a:84:85:56:33:b1:3e:ed:bf:f2:f9:d5:99:1f:d0:37:9c:57:
        88:a8:ba:6c:1e:55:29:b0:04:64:b8:60:5f:69:7a:14:b8:8a:
        69:10:9e:4e:9d:94:14:0c:cd:b9
-----BEGIN CERTIFICATE-----
MIIBvTCCAWugAwIBAgIQBEUirP+DH6xEuQ6jhv9i+jAJBgUrDgMCHQUAMBYxFDAS
BgNVBAMTC1Jvb3QgQWdlbmN5MB4XDTExMTIwMjA0MzA0OVoXDTM5MTIzMTIzNTk1
OVowIDEMMAoGA1UEChMDb3JnMRAwDgYDVQQDEwdzdWJqZWN0MIGfMA0GCSqGSIb3
DQEBAQUAA4GNADCBiQKBgQDWbu1pfYmxy3RmGmZpd4UO8WcuTCH6QFdEJMLiJZ8/
qCZzVI2GQG734QR9/6P8R7AjA5h/wra8Q+9GJr8r6HzkoN40aNr6n8uekiH7pncO
t28Vn2AtDYyggYhC67E2klmv3Ar3jY/cVbWQ0QM30hwUzFshrA0IfZXzH7LVPZun
LQIDAQABo0swSTBHBgNVHQEEQDA+gBAS5AktBh0dTwCNYSHcFmRjoRgwFjEUMBIG
A1UEAxMLUm9vdCBBZ2VuY3mCEAY3bACqAGSKEc+41KpcNfQwCQYFKw4DAh0FAANB
ACILn5PS4Ve6GtDFFh6HJNgPRSqEhVYzsT7tv/L51Zkf0DecV4ioumweVSmwBGS4
YF9pehS4imkQnk6dlBQMzbk=
-----END CERTIFICATE-----
