Certificate:
    Data:
        Version: 3 (0x2)
        Serial Number:
            0e:3a:04:07:5a:97:c9:b0:4e:4f:6d:b7:1e:65:4c:cb
        Signature Algorithm: sha1WithRSA
        Issuer: CN=Root Agency
        Validity
            Not Before: Dec  2 04:31:40 2011 GMT
            Not After : Dec 31 23:59:59 2039 GMT
        Subject: O=org
        Subject Public Key Info:
            Public Key Algorithm: rsaEncryption
                Public-Key: (1024 bit)
                Modulus:
                    00:d6:6e:ed:69:7d:89:b1:cb:74:66:1a:66:69:77:
                    85:0e:f1:67:2e:4c:21:fa:40:57:44:24:c2:e2:25:
                    9f:3f:a8:26:73:54:8d:86:40:6e:f7:e1:04:7d:ff:
                    a3:fc:47:b0:23:03:98:7f:c2:b6:bc:43:ef:46:26:
                    bf:2b:e8:7c:e4:a0:de:34:68:da:fa:9f:cb:9e:92:
                    21:fb:a6:77:0e:b7:6f:15:9f:60:2d:0d:8c:a0:81:
                    88:42:eb:b1:36:92:59:af:dc:0a:f7:8d:8f:dc:55:
                    b5:90:d1:03:37:d2:1c:14:cc:5b:21:ac:0d:08:7d:
                    95:f3:1f:b2:d5:3d:9b:a7:2d
                Exponent: 65537 (0x10001)
        X509v3 extensions:
            2.5.29.1: 
                0>.....-...O..a!..dc..0.1.0...U....Root Agency...7l...d......\5.
    Signature Algorithm: sha1WithRSA
        20:a4:6f:00:6e:2a:01:26:83:aa:dc:12:4a:e7:90:db:28:cc:
        fa:a2:0f:05:e8:43:01:8a:76:59:4e:5a:76:fc:56:0c:05:86:
        07:40:91:28:f8:29:a2:51:9c:75:cf:d3:95:c2:17:da:69:0e:
        36:71:14:85:b3:6d:ec:cd:7c:bb
-----BEGIN CERTIFICATE-----
MIIBqzCCAVmgAwIBAgIQDjoEB1qXybBOT223HmVMyzAJBgUrDgMCHQUAMBYxFDAS
BgNVBAMTC1Jvb3QgQWdlbmN5MB4XDTExMTIwMjA0MzE0MFoXDTM5MTIzMTIzNTk1
OVowDjEMMAoGA1UEChMDb3JnMIGfMA0GCSqGSIb3DQEBAQUAA4GNADCBiQKBgQDW
bu1pfYmxy3RmGmZpd4UO8WcuTCH6QFdEJMLiJZ8/qCZzVI2GQG734QR9/6P8R7Aj
A5h/wra8Q+9GJr8r6HzkoN40aNr6n8uekiH7pncOt28Vn2AtDYyggYhC67E2klmv
3Ar3jY/cVbWQ0QM30hwUzFshrA0IfZXzH7LVPZunLQIDAQABo0swSTBHBgNVHQEE
QDA+gBAS5AktBh0dTwCNYSHcFmRjoRgwFjEUMBIGA1UEAxMLUm9vdCBBZ2VuY3mC
EAY3bACqAGSKEc+41KpcNfQwCQYFKw4DAh0FAANBACCkbwBuKgEmg6rcEkrnkNso
zPqiDwXoQwGKdllOWnb8VgwFhgdAkSj4KaJRnHXP05XCF9ppDjZxFIWzbezNfLs=
-----END CERTIFICATE-----
