Certificate:
    Data:
        Version: 3 (0x2)
        Serial Number:
             (Negative)73:8f:32:df:9c:9e:16:44:b1:49:d5:71:28:f9:06:5c
        Signature Algorithm: sha1WithRSA
        Issuer: CN=Root Agency
        Validity
            Not Before: Dec  2 04:31:11 2011 GMT
            Not After : Dec 31 23:59:59 2039 GMT
        Subject: OU=unit, O=org, CN=subject
        Subject Public Key Info:
            Public Key Algorithm: rsaEncryption
                Public-Key: (1024 bit)
                Modulus:
                    00:d6:6e:ed:69:7d:89:b1:cb:74:66:1a:66:69:77:
                    85:0e:f1:67:2e:4c:21:fa:40:57:44:24:c2:e2:25:
                    9f:3f:a8:26:73:54:8d:86:40:6e:f7:e1:04:7d:ff:
                    a3:fc:47:b0:23:03:98:7f:c2:b6:bc:43:ef:46:26:
                    bf:2b:e8:7c:e4:a0:de:34:68:da:fa:9f:cb:9e:92:
                    21:fb:a6:77:0e:b7:6f:15:9f:60:2d:0d:8c:a0:81:
                    88:42:eb:b1:36:92:59:af:dc:0a:f7:8d:8f:dc:55:
                    b5:90:d1:03:37:d2:1c:14:cc:5b:21:ac:0d:08:7d:
                    95:f3:1f:b2:d5:3d:9b:a7:2d
                Exponent: 65537 (0x10001)
        X509v3 extensions:
            2.5.29.1: 
                0>.....-...O..a!..dc..0.1.0...U....Root Agency...7l...d......\5.
    Signature Algorithm: sha1WithRSA
        05:c7:2e:30:d4:08:5d:55:2c:ad:b7:13:74:bd:46:23:f3:93:
        20:a7:ee:24:78:1a:f2:2a:39:89:af:74:1a:25:1a:6a:45:d6:
        b8:b8:1b:a3:30:5e:5d:b5:7c:5a:d9:ec:86:1d:a3:a3:59:7f:
        38:3b:64:be:d2:70:e2:ed:e1:1a
-----BEGIN CERTIFICATE-----
MIIBzDCCAXqgAwIBAgIQjHDNIGNh6btOtiqO1wb5pDAJBgUrDgMCHQUAMBYxFDAS
BgNVBAMTC1Jvb3QgQWdlbmN5MB4XDTExMTIwMjA0MzExMVoXDTM5MTIzMTIzNTk1
OVowLzENMAsGA1UECxMEdW5pdDEMMAoGA1UEChMDb3JnMRAwDgYDVQQDEwdzdWJq
ZWN0MIGfMA0GCSqGSIb3DQEBAQUAA4GNADCBiQKBgQDWbu1pfYmxy3RmGmZpd4UO
8WcuTCH6QFdEJMLiJZ8/qCZzVI2GQG734QR9/6P8R7AjA5h/wra8Q+9GJr8r6Hzk
oN40aNr6n8uekiH7pncOt28Vn2AtDYyggYhC67E2klmv3Ar3jY/cVbWQ0QM30hwU
zFshrA0IfZXzH7LVPZunLQIDAQABo0swSTBHBgNVHQEEQDA+gBAS5AktBh0dTwCN
YSHcFmRjoRgwFjEUMBIGA1UEAxMLUm9vdCBBZ2VuY3mCEAY3bACqAGSKEc+41Kpc
NfQwCQYFKw4DAh0FAANBAAXHLjDUCF1VLK23E3S9RiPzkyCn7iR4GvIqOYmvdBol
GmpF1ri4G6MwXl21fFrZ7IYdo6NZfzg7ZL7ScOLt4Ro=
-----END CERTIFICATE-----
