Certificate:
    Data:
        Version: 3 (0x2)
        Serial Number:
             (Negative)52:2f:d2:aa:16:73:47:40:b2:f5:e0:a2:e2:1a:9a:1e
        Signature Algorithm: sha1WithRSA
        Issuer: CN=Root Agency
        Validity
            Not Before: Dec  2 04:31:52 2011 GMT
            Not After : Dec 31 23:59:59 2039 GMT
        Subject: OU=unit, O=org
        Subject Public Key Info:
            Public Key Algorithm: rsaEncryption
                Public-Key: (1024 bit)
                Modulus:
                    00:d6:6e:ed:69:7d:89:b1:cb:74:66:1a:66:69:77:
                    85:0e:f1:67:2e:4c:21:fa:40:57:44:24:c2:e2:25:
                    9f:3f:a8:26:73:54:8d:86:40:6e:f7:e1:04:7d:ff:
                    a3:fc:47:b0:23:03:98:7f:c2:b6:bc:43:ef:46:26:
                    bf:2b:e8:7c:e4:a0:de:34:68:da:fa:9f:cb:9e:92:
                    21:fb:a6:77:0e:b7:6f:15:9f:60:2d:0d:8c:a0:81:
                    88:42:eb:b1:36:92:59:af:dc:0a:f7:8d:8f:dc:55:
                    b5:90:d1:03:37:d2:1c:14:cc:5b:21:ac:0d:08:7d:
                    95:f3:1f:b2:d5:3d:9b:a7:2d
                Exponent: 65537 (0x10001)
        X509v3 extensions:
            2.5.29.1: 
                0>.....-...O..a!..dc..0.1.0...U....Root Agency...7l...d......\5.
    Signature Algorithm: sha1WithRSA
        58:8d:20:c5:df:6f:d8:b5:cc:d8:e7:0d:48:0d:7c:a9:ba:28:
        22:f7:16:10:cc:04:36:1d:65:de:e3:b8:f9:c1:41:2c:06:63:
        84:dc:30:78:37:5d:c3:3a:0e:3e:41:f3:1b:66:2b:eb:cd:1f:
        ac:bf:15:b5:e4:a6:ac:30:d0:84
-----BEGIN CERTIFICATE-----
MIIBujCCAWigAwIBAgIQrdAtVemMuL9NCh9dHeVl4jAJBgUrDgMCHQUAMBYxFDAS
BgNVBAMTC1Jvb3QgQWdlbmN5MB4XDTExMTIwMjA0MzE1MloXDTM5MTIzMTIzNTk1
OVowHTENMAsGA1UECxMEdW5pdDEMMAoGA1UEChMDb3JnMIGfMA0GCSqGSIb3DQEB
AQUAA4GNADCBiQKBgQDWbu1pfYmxy3RmGmZpd4UO8WcuTCH6QFdEJMLiJZ8/qCZz
VI2GQG734QR9/6P8R7AjA5h/wra8Q+9GJr8r6HzkoN40aNr6n8uekiH7pncOt28V
n2AtDYyggYhC67E2klmv3Ar3jY/cVbWQ0QM30hwUzFshrA0IfZXzH7LVPZunLQID
AQABo0swSTBHBgNVHQEEQDA+gBAS5AktBh0dTwCNYSHcFmRjoRgwFjEUMBIGA1UE
AxMLUm9vdCBBZ2VuY3mCEAY3bACqAGSKEc+41KpcNfQwCQYFKw4DAh0FAANBAFiN
IMXfb9i1zNjnDUgNfKm6KCL3FhDMBDYdZd7juPnBQSwGY4TcMHg3XcM6Dj5B8xtm
K+vNH6y/FbXkpqww0IQ=
-----END CERTIFICATE-----
