Certificate:
    Data:
        Version: 1 (0x0)
        Serial Number:
            f7:ae:7f:ae:e8:73:8b:59
        Signature Algorithm: sha1WithRSAEncryption
        Issuer: CN=subject/%1
        Validity
            Not Before: Dec  6 00:02:05 2011 GMT
            Not After : Dec  3 00:02:05 2021 GMT
        Subject: CN=subject/%1
        Subject Public Key Info:
            Public Key Algorithm: rsaEncryption
            RSA Public Key: (1024 bit)
                Modulus (1024 bit):
                    00:ef:df:c1:77:5b:b9:30:5f:fd:90:76:d5:a0:94:
                    77:87:40:ec:9b:16:32:c7:b4:10:58:0e:a5:93:02:
                    67:86:50:68:8d:82:fd:fc:53:d9:67:92:4b:03:a8:
                    93:06:4f:eb:1f:bb:39:19:c4:9c:0e:cc:b1:5d:f8:
                    13:2f:34:96:62:d1:32:79:84:22:30:0d:a9:70:3b:
                    15:1e:d2:fa:73:24:d9:c5:c0:9a:75:45:1e:de:d0:
                    4a:01:48:83:b3:f7:0d:15:2d:65:da:a9:c6:99:a3:
                    97:7f:db:22:9e:8f:cb:ac:60:55:15:72:c0:23:73:
                    33:53:bb:6c:ff:67:e9:ee:97
                Exponent: 65537 (0x10001)
    Signature Algorithm: sha1WithRSAEncryption
        67:66:46:55:60:d6:e5:4e:45:b8:d0:64:86:11:88:3a:c8:6b:
        5e:06:a3:bd:0a:eb:31:ac:a6:d6:e9:a9:a6:0b:04:dd:df:c4:
        1f:99:50:83:5f:8b:34:21:be:9a:cd:ff:f9:5e:03:02:d7:8e:
        c0:d3:94:9b:43:59:90:e3:d4:e3:fe:71:16:bb:33:ab:65:c3:
        4f:36:3f:9c:cb:79:8c:77:27:e4:2e:8b:be:e6:06:2f:14:18:
        e0:09:69:10:27:8d:34:ec:7e:1a:b5:a7:7b:de:cf:1e:1c:4d:
        bb:7e:98:7f:8a:01:3f:0d:02:1d:68:9a:13:b4:6f:4a:d8:fd:
        44:0a
-----BEGIN CERTIFICATE-----
MIIBoTCCAQoCCQD3rn+u6HOLWTANBgkqhkiG9w0BAQUFADAVMRMwEQYDVQQDFApz
dWJqZWN0LyUxMB4XDTExMTIwNjAwMDIwNVoXDTIxMTIwMzAwMDIwNVowFTETMBEG
A1UEAxQKc3ViamVjdC8lMTCBnzANBgkqhkiG9w0BAQEFAAOBjQAwgYkCgYEA79/B
d1u5MF/9kHbVoJR3h0DsmxYyx7QQWA6lkwJnhlBojYL9/FPZZ5JLA6iTBk/rH7s5
GcScDsyxXfgTLzSWYtEyeYQiMA2pcDsVHtL6cyTZxcCadUUe3tBKAUiDs/cNFS1l
2qnGmaOXf9sino/LrGBVFXLAI3MzU7ts/2fp7pcCAwEAATANBgkqhkiG9w0BAQUF
AAOBgQBnZkZVYNblTkW40GSGEYg6yGteBqO9CusxrKbW6ammCwTd38QfmVCDX4s0
Ib6azf/5XgMC147A05SbQ1mQ49Tj/nEWuzOrZcNPNj+cy3mMdyfkLou+5gYvFBjg
CWkQJ4007H4atad73s8eHE27fph/igE/DQIdaJoTtG9K2P1ECg==
-----END CERTIFICATE-----
