Certificate:
    Data:
        Version: 3 (0x2)
        Serial Number:
            7f:12:98:df:40:0c:80:93:44:f3:9e:95:97:bc:74:b1
        Signature Algorithm: sha1WithRSA
        Issuer: CN=Root Agency
        Validity
            Not Before: Dec  2 04:31:22 2011 GMT
            Not After : Dec 31 23:59:59 2039 GMT
        Subject: OU=unit, CN=subject
        Subject Public Key Info:
            Public Key Algorithm: rsaEncryption
                Public-Key: (1024 bit)
                Modulus:
                    00:d6:6e:ed:69:7d:89:b1:cb:74:66:1a:66:69:77:
                    85:0e:f1:67:2e:4c:21:fa:40:57:44:24:c2:e2:25:
                    9f:3f:a8:26:73:54:8d:86:40:6e:f7:e1:04:7d:ff:
                    a3:fc:47:b0:23:03:98:7f:c2:b6:bc:43:ef:46:26:
                    bf:2b:e8:7c:e4:a0:de:34:68:da:fa:9f:cb:9e:92:
                    21:fb:a6:77:0e:b7:6f:15:9f:60:2d:0d:8c:a0:81:
                    88:42:eb:b1:36:92:59:af:dc:0a:f7:8d:8f:dc:55:
                    b5:90:d1:03:37:d2:1c:14:cc:5b:21:ac:0d:08:7d:
                    95:f3:1f:b2:d5:3d:9b:a7:2d
                Exponent: 65537 (0x10001)
        X509v3 extensions:
            2.5.29.1: 
                0>.....-...O..a!..dc..0.1.0...U....Root Agency...7l...d......\5.
    Signature Algorithm: sha1WithRSA
        56:56:ce:1e:f4:db:42:65:e5:e3:16:f6:2c:a0:23:19:3e:f5:
        ce:58:58:72:e7:0d:56:11:e0:4b:ce:fe:f1:51:26:b7:cf:6d:
        4f:fb:01:72:b1:74:6c:0f:3e:e7:65:8b:8e:78:34:18:80:a1:
        5f:a6:33:a6:6e:41:14:a4:a9:db
-----BEGIN CERTIFICATE-----
MIIBvjCCAWygAwIBAgIQfxKY30AMgJNE856Vl7x0sTAJBgUrDgMCHQUAMBYxFDAS
BgNVBAMTC1Jvb3QgQWdlbmN5MB4XDTExMTIwMjA0MzEyMloXDTM5MTIzMTIzNTk1
OVowITENMAsGA1UECxMEdW5pdDEQMA4GA1UEAxMHc3ViamVjdDCBnzANBgkqhkiG
9w0BAQEFAAOBjQAwgYkCgYEA1m7taX2Jsct0ZhpmaXeFDvFnLkwh+kBXRCTC4iWf
P6gmc1SNhkBu9+EEff+j/EewIwOYf8K2vEPvRia/K+h85KDeNGja+p/LnpIh+6Z3
DrdvFZ9gLQ2MoIGIQuuxNpJZr9wK942P3FW1kNEDN9IcFMxbIawNCH2V8x+y1T2b
py0CAwEAAaNLMEkwRwYDVR0BBEAwPoAQEuQJLQYdHU8AjWEh3BZkY6EYMBYxFDAS
BgNVBAMTC1Jvb3QgQWdlbmN5ghAGN2wAqgBkihHPuNSqXDX0MAkGBSsOAwIdBQAD
QQBWVs4e9NtCZeXjFvYsoCMZPvXOWFhy5w1WEeBLzv7xUSa3z21P+wFysXRsDz7n
ZYuOeDQYgKFfpjOmbkEUpKnb
-----END CERTIFICATE-----
