Certificate:
    Data:
        Version: 3 (0x2)
        Serial Number: 11 (0xb)
    Signature Algorithm: sha1WithRSAEncryption
        Issuer: C=US, ST=California, L=Mountain View, O=Test CA, CN=Test Root CA
        Validity
            Not Before: Jan  1 00:00:00 2016 GMT
            Not After : Dec 30 00:00:00 2016 GMT
        Subject: C=US, ST=California, L=Mountain View, O=Test CA, CN=127.0.0.1
        Subject Public Key Info:
            Public Key Algorithm: rsaEncryption
                Public-Key: (2048 bit)
                Modulus:
                    00:a1:89:77:c3:66:58:98:bc:85:76:2f:a7:0a:23:
                    52:73:1a:cf:d9:5a:10:50:1e:d9:37:aa:c6:f7:03:
                    e3:ab:c2:b7:07:72:75:54:b2:e1:cc:9c:99:9a:a6:
                    a6:f3:b8:5e:b4:f6:ea:c2:09:c6:76:2c:45:b9:e8:
                    14:cc:ae:8b:99:10:7c:39:52:53:e2:87:70:02:00:
                    74:ca:9b:3f:81:5e:2b:3b:09:00:51:be:a1:7f:f5:
                    5e:45:1b:d7:15:44:b4:97:16:f9:d9:18:2d:c8:cc:
                    e1:dc:f6:34:a6:6d:5d:67:4c:75:64:5c:d2:8c:e9:
                    1d:90:0c:e2:21:f6:8e:86:d7:3d:4f:92:6a:46:53:
                    0a:5c:86:98:d9:a4:ad:2a:90:eb:f6:c3:98:dd:86:
                    af:24:59:a6:c7:b3:80:40:02:8b:20:e8:89:2d:78:
                    dd:c3:fb:3f:83:16:5d:9c:be:70:73:ec:0c:44:e1:
                    1d:58:72:61:4c:2d:0d:b0:97:ef:f4:fd:18:93:b1:
                    07:c1:85:85:c5:6a:9d:c8:86:32:d8:ea:1e:e1:22:
                    bb:6b:bb:e0:1c:f4:3a:92:f2:b3:1b:36:52:f8:64:
                    3b:01:32:a0:cd:3f:e9:63:78:93:41:98:05:2c:bf:
                    0a:cb:e8:e0:18:67:20:03:43:01:82:8a:ed:fb:33:
                    86:23
                Exponent: 65537 (0x10001)
        X509v3 extensions:
            X509v3 Basic Constraints: critical
                CA:FALSE
            X509v3 Subject Key Identifier: 
                15:94:2D:EB:50:FA:06:28:94:5B:58:20:CC:09:20:27:56:7A:2A:3B
            X509v3 Authority Key Identifier: 
                keyid:9B:26:0B:8A:98:A9:BB:1D:B9:1F:1C:E3:1A:40:33:ED:8E:17:88:AB

            X509v3 Extended Key Usage: 
                TLS Web Server Authentication, TLS Web Client Authentication
            X509v3 Subject Alternative Name: 
                IP Address:127.0.0.1
    Signature Algorithm: sha1WithRSAEncryption
         b1:06:12:ad:8f:94:6b:ed:de:ed:7a:5e:ef:93:bd:d1:85:48:
         62:62:f1:92:03:ac:77:d4:24:1e:64:77:55:8a:15:39:ee:41:
         6f:76:c4:2b:c5:b3:fd:4e:a1:4e:8e:ad:da:f4:41:3f:69:9c:
         2a:0d:d3:79:a5:53:0f:be:3c:a8:ef:d2:e1:83:60:a9:bd:3e:
         a8:1e:3a:cd:c6:04:71:b0:14:98:71:2d:35:d3:ff:1f:27:77:
         5c:69:ab:8f:9e:f4:26:48:f1:03:61:8d:c9:e7:43:fb:ab:95:
         e2:97:cb:b9:04:cf:3b:10:5c:21:a2:27:f6:b2:43:c2:3f:5b:
         3c:06:7a:d5:46:09:74:71:49:32:6a:8c:12:b4:d1:a0:4a:4a:
         85:77:5a:d0:f0:fd:e9:88:94:2e:fc:db:15:8a:b2:85:82:a4:
         82:b9:0e:36:54:e8:6a:b9:37:55:0a:63:90:56:06:77:9f:34:
         6c:25:f2:a6:92:08:eb:c5:df:d4:68:52:73:9e:9c:c9:b8:c3:
         b7:f2:14:c4:5c:78:12:03:5f:8d:09:a7:ac:ba:79:35:62:14:
         13:e6:fe:64:41:e7:4a:a5:41:b1:0e:ad:e8:2f:16:36:ba:1c:
         a5:76:4e:fb:70:62:8c:00:f4:22:55:9d:99:61:5a:b6:e5:fb:
         7e:94:44:c6
-----BEGIN CERTIFICATE-----
MIIDvzCCAqegAwIBAgIBCzANBgkqhkiG9w0BAQUFADBjMQswCQYDVQQGEwJVUzET
MBEGA1UECAwKQ2FsaWZvcm5pYTEWMBQGA1UEBwwNTW91bnRhaW4gVmlldzEQMA4G
A1UECgwHVGVzdCBDQTEVMBMGA1UEAwwMVGVzdCBSb290IENBMB4XDTE2MDEwMTAw
MDAwMFoXDTE2MTIzMDAwMDAwMFowYDELMAkGA1UEBhMCVVMxEzARBgNVBAgMCkNh
bGlmb3JuaWExFjAUBgNVBAcMDU1vdW50YWluIFZpZXcxEDAOBgNVBAoMB1Rlc3Qg
Q0ExEjAQBgNVBAMMCTEyNy4wLjAuMTCCASIwDQYJKoZIhvcNAQEBBQADggEPADCC
AQoCggEBAKGJd8NmWJi8hXYvpwojUnMaz9laEFAe2TeqxvcD46vCtwdydVSy4cyc
mZqmpvO4XrT26sIJxnYsRbnoFMyui5kQfDlSU+KHcAIAdMqbP4FeKzsJAFG+oX/1
XkUb1xVEtJcW+dkYLcjM4dz2NKZtXWdMdWRc0ozpHZAM4iH2jobXPU+SakZTClyG
mNmkrSqQ6/bDmN2GryRZpsezgEACiyDoiS143cP7P4MWXZy+cHPsDEThHVhyYUwt
DbCX7/T9GJOxB8GFhcVqnciGMtjqHuEiu2u74Bz0OpLysxs2UvhkOwEyoM0/6WN4
k0GYBSy/Csvo4BhnIANDAYKK7fszhiMCAwEAAaOBgDB+MAwGA1UdEwEB/wQCMAAw
HQYDVR0OBBYEFBWULetQ+gYolFtYIMwJICdWeio7MB8GA1UdIwQYMBaAFJsmC4qY
qbsduR8c4xpAM+2OF4irMB0GA1UdJQQWMBQGCCsGAQUFBwMBBggrBgEFBQcDAjAP
BgNVHREECDAGhwR/AAABMA0GCSqGSIb3DQEBBQUAA4IBAQCxBhKtj5Rr7d7tel7v
k73RhUhiYvGSA6x31CQeZHdVihU57kFvdsQrxbP9TqFOjq3a9EE/aZwqDdN5pVMP
vjyo79Lhg2CpvT6oHjrNxgRxsBSYcS010/8fJ3dcaauPnvQmSPEDYY3J50P7q5Xi
l8u5BM87EFwhoif2skPCP1s8BnrVRgl0cUkyaowStNGgSkqFd1rQ8P3piJQu/NsV
irKFgqSCuQ42VOhquTdVCmOQVgZ3nzRsJfKmkgjrxd/UaFJznpzJuMO38hTEXHgS
A1+NCaesunk1YhQT5v5kQedKpUGxDq3oLxY2uhyldk77cGKMAPQiVZ2ZYVq25ft+
lETG
-----END CERTIFICATE-----
