Certificate:
    Data:
        Version: 3 (0x2)
        Serial Number: 10 (0xa)
    Signature Algorithm: sha1WithRSAEncryption
        Issuer: C=US, ST=California, L=Mountain View, O=Test CA, CN=Test Root CA
        Validity
            Not Before: Dec 31 23:59:59 2015 GMT
            Not After : Dec 30 00:00:00 2016 GMT
        Subject: C=US, ST=California, L=Mountain View, O=Test CA, CN=127.0.0.1
        Subject Public Key Info:
            Public Key Algorithm: rsaEncryption
                Public-Key: (2048 bit)
                Modulus:
                    00:b6:91:2d:66:93:a5:7c:3c:60:ef:37:dd:70:95:
                    ec:f4:16:31:64:f5:02:6b:da:28:b0:56:64:6c:4b:
                    77:3a:ce:88:14:24:36:7d:7c:18:cc:fd:fb:43:24:
                    09:e0:d5:6c:4d:32:47:08:61:a6:e1:3b:69:9d:4b:
                    bf:d4:0f:d1:11:1b:c6:08:6e:b1:ad:76:36:ab:f9:
                    2e:93:da:23:eb:bd:e3:06:a6:94:8a:7b:12:9b:92:
                    d4:7b:6a:ee:95:95:3e:76:16:77:da:cc:3a:5b:0e:
                    5d:45:57:fb:d6:73:0e:7e:0e:2d:98:e0:1a:ae:49:
                    c0:b6:c5:86:f6:c3:06:cc:91:aa:ec:dc:a6:32:cc:
                    31:3d:60:ff:21:97:77:98:f7:2a:7b:94:68:5e:48:
                    91:64:2b:25:93:dd:d4:42:bd:45:3b:40:da:fc:5f:
                    87:d1:82:60:da:54:1a:92:fb:a6:eb:5e:d4:1b:5a:
                    5e:88:07:a4:1e:b8:9b:e9:6f:8b:9d:0a:5b:94:78:
                    07:c9:60:ed:16:ec:2d:67:37:e1:37:2e:db:6c:27:
                    30:5b:5b:b0:7f:bf:29:d1:a7:c5:57:88:9e:a2:4e:
                    52:56:5c:44:49:67:2c:fb:e4:29:9e:48:88:8a:2b:
                    a4:86:d3:5a:bc:66:6c:e8:56:68:1f:4e:6a:74:54:
                    34:f1
                Exponent: 65537 (0x10001)
        X509v3 extensions:
            X509v3 Basic Constraints: critical
                CA:FALSE
            X509v3 Subject Key Identifier: 
                8F:94:39:15:DD:3B:6D:DE:5D:23:46:53:92:8A:FF:E4:28:CA:54:40
            X509v3 Authority Key Identifier: 
                keyid:9B:26:0B:8A:98:A9:BB:1D:B9:1F:1C:E3:1A:40:33:ED:8E:17:88:AB

            X509v3 Extended Key Usage: 
                TLS Web Server Authentication, TLS Web Client Authentication
            X509v3 Subject Alternative Name: 
                IP Address:127.0.0.1
    Signature Algorithm: sha1WithRSAEncryption
         3c:ba:22:75:be:4a:28:1d:0b:14:16:f9:6a:24:8b:be:62:f2:
         aa:38:fe:23:89:b5:50:2c:ab:ea:9e:fb:74:6a:dd:1f:31:bd:
         6a:d0:16:09:be:a5:af:62:4a:6b:bd:98:d0:d6:4f:8a:3c:05:
         2c:92:e1:c5:db:5f:e2:64:9c:f5:ba:23:c5:f7:75:53:21:54:
         a0:9d:ad:2a:36:cb:7a:b8:a7:04:ae:97:17:6b:af:a1:1c:08:
         14:94:e0:5e:fe:58:51:d2:51:6a:17:fc:89:13:f1:98:76:86:
         92:66:91:8d:87:c5:6a:db:48:7c:63:7b:b7:db:3c:90:3a:8c:
         73:5c:db:d0:0b:1b:96:3f:d4:07:ba:69:81:c7:83:3f:81:a7:
         1d:30:8e:06:1a:95:49:0b:32:d3:b7:ea:e8:04:61:c4:f5:b0:
         11:77:3d:60:02:e7:dd:3d:93:7d:22:61:81:4c:27:15:07:f1:
         e5:8c:f1:d2:c6:40:83:03:d7:fc:38:69:aa:75:c0:d1:80:42:
         cf:9c:92:18:c0:e4:30:df:1a:27:4b:3f:7f:c4:0d:0a:46:96:
         51:9a:67:84:2b:2d:33:56:c8:52:fb:8b:6d:c7:e0:7e:c0:43:
         55:69:9c:4c:9d:4b:36:82:be:b9:a7:77:8d:e6:85:90:7e:fb:
         dc:2e:08:26
-----BEGIN CERTIFICATE-----
MIIDvzCCAqegAwIBAgIBCjANBgkqhkiG9w0BAQUFADBjMQswCQYDVQQGEwJVUzET
MBEGA1UECAwKQ2FsaWZvcm5pYTEWMBQGA1UEBwwNTW91bnRhaW4gVmlldzEQMA4G
A1UECgwHVGVzdCBDQTEVMBMGA1UEAwwMVGVzdCBSb290IENBMB4XDTE1MTIzMTIz
NTk1OVoXDTE2MTIzMDAwMDAwMFowYDELMAkGA1UEBhMCVVMxEzARBgNVBAgMCkNh
bGlmb3JuaWExFjAUBgNVBAcMDU1vdW50YWluIFZpZXcxEDAOBgNVBAoMB1Rlc3Qg
Q0ExEjAQBgNVBAMMCTEyNy4wLjAuMTCCASIwDQYJKoZIhvcNAQEBBQADggEPADCC
AQoCggEBALaRLWaTpXw8YO833XCV7PQWMWT1AmvaKLBWZGxLdzrOiBQkNn18GMz9
+0MkCeDVbE0yRwhhpuE7aZ1Lv9QP0REbxghusa12Nqv5LpPaI+u94wamlIp7EpuS
1Htq7pWVPnYWd9rMOlsOXUVX+9ZzDn4OLZjgGq5JwLbFhvbDBsyRquzcpjLMMT1g
/yGXd5j3KnuUaF5IkWQrJZPd1EK9RTtA2vxfh9GCYNpUGpL7pute1BtaXogHpB64
m+lvi50KW5R4B8lg7RbsLWc34Tcu22wnMFtbsH+/KdGnxVeInqJOUlZcRElnLPvk
KZ5IiIorpIbTWrxmbOhWaB9OanRUNPECAwEAAaOBgDB+MAwGA1UdEwEB/wQCMAAw
HQYDVR0OBBYEFI+UORXdO23eXSNGU5KK/+QoylRAMB8GA1UdIwQYMBaAFJsmC4qY
qbsduR8c4xpAM+2OF4irMB0GA1UdJQQWMBQGCCsGAQUFBwMBBggrBgEFBQcDAjAP
BgNVHREECDAGhwR/AAABMA0GCSqGSIb3DQEBBQUAA4IBAQA8uiJ1vkooHQsUFvlq
JIu+YvKqOP4jibVQLKvqnvt0at0fMb1q0BYJvqWvYkprvZjQ1k+KPAUskuHF21/i
ZJz1uiPF93VTIVSgna0qNst6uKcErpcXa6+hHAgUlOBe/lhR0lFqF/yJE/GYdoaS
ZpGNh8Vq20h8Y3u32zyQOoxzXNvQCxuWP9QHummBx4M/gacdMI4GGpVJCzLTt+ro
BGHE9bARdz1gAufdPZN9ImGBTCcVB/HljPHSxkCDA9f8OGmqdcDRgELPnJIYwOQw
3xonSz9/xA0KRpZRmmeEKy0zVshS+4ttx+B+wENVaZxMnUs2gr65p3eN5oWQfvvc
Lggm
-----END CERTIFICATE-----
